
./nonmaxsup:     file format elf64-x86-64
architecture: i386:x86-64, flags 0x00000112:
EXEC_P, HAS_SYMS, D_PAGED
start address 0x0000000000400970

Contents of section .interp:
 400238 2f6c6962 36342f6c 642d6c69 6e75782d  /lib64/ld-linux-
 400248 7838362d 36342e73 6f2e3200           x86-64.so.2.    
Contents of section .note.ABI-tag:
 400254 04000000 10000000 01000000 474e5500  ............GNU.
 400264 00000000 03000000 02000000 00000000  ................
Contents of section .note.gnu.build-id:
 400274 04000000 14000000 03000000 474e5500  ............GNU.
 400284 50129475 094e5355 50047f1c f06707c3  P..u.NSUP....g..
 400294 ab99173a                             ...:            
Contents of section .gnu.hash:
 400298 01000000 01000000 01000000 00000000  ................
 4002a8 00000000 00000000 00000000           ............    
Contents of section .dynsym:
 4002b8 00000000 00000000 00000000 00000000  ................
 4002c8 00000000 00000000 30000000 20000000  ........0... ...
 4002d8 00000000 00000000 00000000 00000000  ................
 4002e8 0b000000 12000000 00000000 00000000  ................
 4002f8 00000000 00000000 12000000 12000000  ................
 400308 00000000 00000000 00000000 00000000  ................
 400318 4c000000 20000000 00000000 00000000  L... ...........
 400328 00000000 00000000 5b000000 20000000  ........[... ...
 400338 00000000 00000000 00000000 00000000  ................
Contents of section .dynstr:
 400348 006c6962 632e736f 2e360070 72696e74  .libc.so.6.print
 400358 66005f5f 6c696263 5f737461 72745f6d  f.__libc_start_m
 400368 61696e00 474c4942 435f322e 322e3500  ain.GLIBC_2.2.5.
 400378 5f49544d 5f646572 65676973 74657254  _ITM_deregisterT
 400388 4d436c6f 6e655461 626c6500 5f5f676d  MCloneTable.__gm
 400398 6f6e5f73 74617274 5f5f005f 49544d5f  on_start__._ITM_
 4003a8 72656769 73746572 544d436c 6f6e6554  registerTMCloneT
 4003b8 61626c65 00                          able.           
Contents of section .gnu.version:
 4003be 00000100 02000200 01000100           ............    
Contents of section .gnu.version_r:
 4003d0 01000100 01000000 10000000 00000000  ................
 4003e0 751a6909 00000200 24000000 00000000  u.i.....$.......
Contents of section .rela.dyn:
 4003f0 e01f6000 00000000 06000000 01000000  ..`.............
 400400 00000000 00000000 e81f6000 00000000  ..........`.....
 400410 06000000 03000000 00000000 00000000  ................
 400420 f01f6000 00000000 06000000 04000000  ..`.............
 400430 00000000 00000000 f81f6000 00000000  ..........`.....
 400440 06000000 05000000 00000000 00000000  ................
Contents of section .rela.plt:
 400450 18206000 00000000 07000000 02000000  . `.............
 400460 00000000 00000000                    ........        
Contents of section .init:
 400468 f30f1efa 4883ec08 488b0579 1b200048  ....H...H..y. .H
 400478 85c07402 ffd04883 c408c3             ..t...H....     
Contents of section .plt:
 400490 ff35721b 2000ff25 741b2000 0f1f4000  .5r. ..%t. ...@.
 4004a0 ff25721b 20006800 000000e9 e0ffffff  .%r. .h.........
Contents of section .text:
 4004b0 48b80000 803f0000 004053c5 f9efc048  H....?...@S....H
 4004c0 ba000000 00000010 414881ec 80020000  ........AH......
 4004d0 48894424 4048b800 00404000 00804048  H.D$@H...@@...@H
 4004e0 89442448 48b80000 a0400000 c0404889  .D$HH....@...@H.
 4004f0 44245048 b80000e0 40000000 41488944  D$PH....@...AH.D
 400500 245848b8 00001041 00002041 48894424  $XH....A.. AH.D$
 400510 6048b800 00304100 00404148 89442468  `H...0A..@AH.D$h
 400520 48b80000 50410000 60414889 44247048  H...PA..`AH.D$pH
 400530 b8000070 41000080 41488944 247848b8  ...pA...AH.D$xH.
 400540 00008841 00009041 48898424 80000000  ...A...AH..$....
 400550 48b80000 98410000 a0414889 84248800  H....A...AH..$..
 400560 000048b8 0000a841 0000b041 48898424  ..H....A...AH..$
 400570 90000000 48b80000 b8410000 c0414889  ....H....A...AH.
 400580 84249800 000048b8 0000c841 0000d041  .$....H....A...A
 400590 48898424 a0000000 48b80000 d8410000  H..$....H....A..
 4005a0 e0414889 8424a800 000048b8 0000e841  .AH..$....H....A
 4005b0 0000f041 48898424 b0000000 48b80000  ...AH..$....H...
 4005c0 f8410000 00424889 8424b800 000048b8  .A...BH..$....H.
 4005d0 00000442 00000842 48898424 c0000000  ...B...BH..$....
 4005e0 48b80000 0c420000 10424889 8424c800  H....B...BH..$..
 4005f0 000048b8 00001442 00001842 48898424  ..H....B...BH..$
 400600 d0000000 48b80000 1c420000 20424889  ....H....B.. BH.
 400610 8424d800 000048b8 00002442 00002842  .$....H...$B..(B
 400620 48898424 e0000000 48b80000 2c420000  H..$....H...,B..
 400630 30424889 8424e800 000048b8 00003442  0BH..$....H...4B
 400640 00003842 48898424 f0000000 48b80000  ..8BH..$....H...
 400650 3c420000 40424889 8424f800 000048b8  <B..@BH..$....H.
 400660 00004042 00003c42 48898424 00010000  ..@B..<BH..$....
 400670 48b80000 38420000 34424889 84240801  H...8B..4BH..$..
 400680 000048b8 00003042 00002c42 48898424  ..H...0B..,BH..$
 400690 10010000 48b80000 28420000 24424889  ....H...(B..$BH.
 4006a0 84241801 000048b8 00002042 00001c42  .$....H... B...B
 4006b0 48898424 20010000 48b80000 18420000  H..$ ...H....B..
 4006c0 14424889 84242801 000048b8 00001042  .BH..$(...H....B
 4006d0 00000c42 48898424 30010000 48b80000  ...BH..$0...H...
 4006e0 08420000 04424889 84243801 000048b8  .B...BH..$8...H.
 4006f0 00000042 0000f841 48898424 40010000  ...B...AH..$@...
 400700 48b80000 f0410000 e8414889 84244801  H....A...AH..$H.
 400710 000048b8 0000e041 0000d841 48898424  ..H....A...AH..$
 400720 50010000 48b80000 d0410000 c8414889  P...H....A...AH.
 400730 84245801 000048b8 0000c041 0000b841  .$X...H....A...A
 400740 48898424 60010000 48b80000 b0410000  H..$`...H....A..
 400750 a8414889 84246801 000048b8 0000a041  .AH..$h...H....A
 400760 00009841 48898424 70010000 48b80000  ...AH..$p...H...
 400770 90410000 88414889 84247801 000048b8  .A...AH..$x...H.
 400780 00008041 00007041 48898424 80010000  ...A..pAH..$....
 400790 48b80000 60410000 50414889 84248801  H...`A..PAH..$..
 4007a0 000048b8 00004041 00003041 48898424  ..H...@A..0AH..$
 4007b0 90010000 48b80000 20410000 10414889  ....H... A...AH.
 4007c0 84249801 000048b8 00000041 0000e040  .$....H....A...@
 4007d0 48898424 a0010000 48b80000 c0400000  H..$....H....@..
 4007e0 a0404889 8424a801 000048b8 00008040  .@H..$....H....@
 4007f0 00004040 48898424 b0010000 48b80000  ..@@H..$....H...
 400800 00400000 803f4889 8424b801 000048b8  .@...?H..$....H.
 400810 00000040 00001041 48899424 c0010000  ...@...AH..$....
 400820 48898424 c8010000 48898424 d0010000  H..$....H..$....
 400830 48898424 d8010000 48899424 e0010000  H..$....H..$....
 400840 48898424 e8010000 48898424 f0010000  H..$....H..$....
 400850 48898424 f8010000 48899424 00020000  H..$....H..$....
 400860 48898424 08020000 48898424 10020000  H..$....H..$....
 400870 48898424 18020000 48899424 20020000  H..$....H..$ ...
 400880 48898424 28020000 48898424 30020000  H..$(...H..$0...
 400890 48898424 38020000 48899424 40020000  H..$8...H..$@...
 4008a0 48898424 48020000 48898424 50020000  H..$H...H..$P...
 4008b0 48898424 58020000 48899424 60020000  H..$X...H..$`...
 4008c0 48898424 68020000 48898424 70020000  H..$h...H..$p...
 4008d0 48898424 78020000 c5f82904 24c5f829  H..$x.....).$..)
 4008e0 442410c5 f8294424 20c5f829 4424300f  D$...)D$ ..)D$0.
 4008f0 3148c1e2 204189c0 4889e149 09d0488d  1H.. A..H..I..H.
 400900 b4240001 0000488d 54244048 8dbc24c0  .$....H.T$@H..$.
 400910 010000e8 48010000 0f3189c6 48c1e220  ....H....1..H.. 
 400920 bfd00d40 0031c048 09f231db 4c29c248  ...@.1.H..1.L).H
 400930 89d6e869 fbffff66 0f1f8400 00000000  ...i...f........
 400940 c5f957c0 89debf00 0e4000b8 01000000  ..W......@......
 400950 c5fa5a04 9ce846fb ffff4883 c3014883  ..Z...F...H...H.
 400960 fb1075dc 4881c480 02000031 c05bc390  ..u.H......1.[..
 400970 f30f1efa 31ed4989 d15e4889 e24883e4  ....1.I..^H..H..
 400980 f0505449 c7c0a00d 400048c7 c1300d40  .PTI....@.H..0.@
 400990 0048c7c7 b0044000 ff154a16 2000f490  .H....@...J. ...
 4009a0 f30f1efa c3662e0f 1f840000 00000090  .....f..........
 4009b0 488d3d71 16200048 8d056a16 20004839  H.=q. .H..j. .H9
 4009c0 f8741548 8b051616 20004885 c07409ff  .t.H.... .H..t..
 4009d0 e00f1f80 00000000 c30f1f80 00000000  ................
 4009e0 488d3d41 16200048 8d353a16 20004829  H.=A. .H.5:. .H)
 4009f0 fe48c1fe 034889f0 48c1e83f 4801c648  .H...H..H..?H..H
 400a00 d1fe7414 488b05ed 15200048 85c07408  ..t.H.... .H..t.
 400a10 ffe0660f 1f440000 c30f1f80 00000000  ..f..D..........
 400a20 f30f1efa 803df915 20000075 13554889  .....=.. ..u.UH.
 400a30 e5e87aff ffffc605 e7152000 015dc390  ..z....... ..]..
 400a40 c366662e 0f1f8400 00000000 0f1f4000  .ff...........@.
 400a50 f30f1efa eb8a662e 0f1f8400 00000000  ......f.........
 400a60 554883c1 044889e5 4883e4e0 4881ecc8  UH...H..H...H...
 400a70 00000048 8d4424d4 c5f8100f c5f81016  ...H.D$.........
 400a80 c4637518 471001c4 e36d1846 1001c5f8  .cu.G....m.F....
 400a90 105f18c5 f8106618 c4e36518 7f2801c5  ._....f...e..(..
 400aa0 3c5fc0c5 f8106f30 c4e35d18 462801c4  <_....o0..].F(..
 400ab0 e3551877 4001c5f8 104e30c5 f8105748  .U.w@....N0...WH
 400ac0 c5c45ff8 c5f8105e 48c5f810 6760c4e3  .._....^H...g`..
 400ad0 75184640 01c4e36d 186f5801 c5f8104e  u.F@...m.oX....N
 400ae0 60c4e35d 18677001 c5cc5ff0 c4e36518  `..].gp..._...e.
 400af0 465801c5 f8105778 c4e36d18 9f880000  FX....Wx..m.....
 400b00 0001c5f8 10979000 0000c4e3 6d1897a0  ............m...
 400b10 00000001 c5d45fe8 c4e37518 467001c5  ......_...u.Fp..
 400b20 f8104e78 c5dc5fe0 c4e37518 86880000  ..Nx.._...u.....
 400b30 0001c5f8 108e9000 0000c5e4 5fd8c4e3  ............_...
 400b40 751886a0 00000001 c5f8108f a8000000  u...............
 400b50 c4e37518 8fb80000 0001c5ec 5fd0c5f8  ..u........._...
 400b60 1086a800 0000c4e3 7d1886b8 00000001  ........}.......
 400b70 c5f45fc8 c5f81002 c4e37d18 421001c5  .._.......}.B...
 400b80 3c5fc0c5 f8104218 c4e37d18 422801c5  <_....B...}.B(..
 400b90 c45ff8c5 f8104230 c4e37d18 424001c5  ._....B0..}.B@..
 400ba0 cc5ff0c5 f8104248 c4e37d18 425801c5  ._....BH..}.BX..
 400bb0 d45fe8c5 f8104260 c4e37d18 427001c5  ._....B`..}.Bp..
 400bc0 dc5fe0c5 f8104278 c4e37d18 82880000  ._....Bx..}.....
 400bd0 0001c5e4 5fd8c5f8 10829000 0000c4e3  ...._...........
 400be0 7d1882a0 00000001 c5ec5fd0 c5f81082  }........._.....
 400bf0 a8000000 c4e37d18 82b80000 0001488d  ......}.......H.
 400c00 9424d400 0000c5f4 5fc8c5fd 6f050e02  .$......_...o...
 400c10 0000c462 7d16cec4 427d16d8 c4627d16  ...b}...B}...b}.
 400c20 d7c57c29 4c24a8c4 627d16fd c4627d16  ..|)L$..b}...b}.
 400c30 c9c4627d 16f4c462 7d16ebc4 627d16e2  ..b}...b}...b}..
 400c40 c4413c5f c3c57c29 4c2488c4 c1445ffa  .A<_..|)L$...D_.
 400c50 c5cc5f74 24a8c442 7d16dbc4 c1545fef  .._t$..B}....T_.
 400c60 c4c15c5f e6c4427d 16d2c4c1 645fddc4  ..\_..B}....d_..
 400c70 c16c5fd4 c4427d16 ffc4c174 5fc9c442  .l_..B}....t_..B
 400c80 7d16f6c4 627d164c 24a8c442 7d16edc4  }...b}.L$..B}...
 400c90 427d16e4 c4e27d16 442488c4 413c5fdb  B}....}.D$..A<_.
 400ca0 c4c1445f fac4c14c 5ff1c4c1 545fefc4  ..D_...L_...T_..
 400cb0 c15c5fe6 c4c1645f ddc4c16c 5fd4c5f4  .\_...d_...l_...
 400cc0 5fc8c57c 295c24c8 c5fc297c 24e8c5fc  _..|)\$...)|$...
 400cd0 29742408 c5fc296c 2428c5fc 29642448  )t$...)l$(..)d$H
 400ce0 c5fc295c 2468c5fc 29942488 000000c5  ..)\$h..).$.....
 400cf0 fc298c24 a8000000 0f1f8400 00000000  .).$............
 400d00 c5fa1040 f44883c0 204883c1 08c5fa11  ...@.H.. H......
 400d10 41f4c5fa 1040e0c5 fa1141f8 4839d075  A....@....A.H9.u
 400d20 dfc5f877 c9c3662e 0f1f8400 00000000  ...w..f.........
 400d30 f30f1efa 41574989 d7415649 89f64155  ....AWI..AVI..AU
 400d40 4189fd41 544c8d25 b4102000 55488d2d  A..ATL.%.. .UH.-
 400d50 b4102000 534c29e5 4883ec08 e807f7ff  .. .SL).H.......
 400d60 ff48c1fd 03741f31 db0f1f80 00000000  .H...t.1........
 400d70 4c89fa4c 89f64489 ef41ff14 dc4883c3  L..L..D..A...H..
 400d80 014839dd 75ea4883 c4085b5d 415c415d  .H9.u.H...[]A\A]
 400d90 415e415f c366662e 0f1f8400 00000000  A^A_.ff.........
 400da0 f30f1efa c3                          .....           
Contents of section .fini:
 400da8 f30f1efa 4883ec08 4883c408 c3        ....H...H....   
Contents of section .rodata:
 400dc0 01000200 00000000 00000000 00000000  ................
 400dd0 52445453 43204261 73652043 79636c65  RDTSC Base Cycle
 400de0 73205461 6b656e20 666f7220 494e545f  s Taken for INT_
 400df0 4d554c3a 20256c6c 750a0d00 00000000  MUL: %llu.......
 400e00 6f75745b 25645d20 3d202566 0a000000  out[%d] = %f....
 400e10 00000000 00000000 00000000 00000000  ................
 400e20 01000000 02000000 00000000 04000000  ................
 400e30 05000000 03000000 07000000 06000000  ................
Contents of section .eh_frame_hdr:
 400e40 011b033b 44000000 07000000 50f6ffff  ...;D.......P...
 400e50 88000000 70f6ffff d0000000 30fbffff  ....p.......0...
 400e60 60000000 60fbffff 74000000 20fcffff  `...`...t... ...
 400e70 b0000000 f0feffff f8000000 60ffffff  ............`...
 400e80 40010000                             @...            
Contents of section .eh_frame:
 400e88 14000000 00000000 017a5200 01781001  .........zR..x..
 400e98 1b0c0708 90010000 10000000 1c000000  ................
 400ea8 c8faffff 2f000000 00440710 10000000  ..../....D......
 400eb8 30000000 e4faffff 05000000 00000000  0...............
 400ec8 24000000 44000000 c0f5ffff 20000000  $...D....... ...
 400ed8 000e1046 0e184a0f 0b770880 003f1a3b  ...F..J..w...?.;
 400ee8 2a332422 00000000 1c000000 6c000000  *3$"........l...
 400ef8 68fbffff c6020000 00410e10 8602470d  h........A....G.
 400f08 0603bd02 0c070800 24000000 8c000000  ........$.......
 400f18 98f5ffff bf040000 004b0e10 8302550e  .........K....U.
 400f28 9005039b 040e1043 0e080000 00000000  .......C........
 400f38 44000000 b4000000 f0fdffff 65000000  D...........e...
 400f48 00460e10 8f02450e 188e0345 0e208d04  .F....E....E. ..
 400f58 450e288c 05480e30 8606480e 38830747  E.(..H.0..H.8..G
 400f68 0e406e0e 38410e30 410e2842 0e20420e  .@n.8A.0A.(B. B.
 400f78 18420e10 420e0800 10000000 fc000000  .B..B...........
 400f88 18feffff 05000000 00000000 00000000  ................
Contents of section .init_array:
 601e00 500a4000 00000000                    P.@.....        
Contents of section .fini_array:
 601e08 200a4000 00000000                     .@.....        
Contents of section .dynamic:
 601e10 01000000 00000000 01000000 00000000  ................
 601e20 0c000000 00000000 68044000 00000000  ........h.@.....
 601e30 0d000000 00000000 a80d4000 00000000  ..........@.....
 601e40 19000000 00000000 001e6000 00000000  ..........`.....
 601e50 1b000000 00000000 08000000 00000000  ................
 601e60 1a000000 00000000 081e6000 00000000  ..........`.....
 601e70 1c000000 00000000 08000000 00000000  ................
 601e80 f5feff6f 00000000 98024000 00000000  ...o......@.....
 601e90 05000000 00000000 48034000 00000000  ........H.@.....
 601ea0 06000000 00000000 b8024000 00000000  ..........@.....
 601eb0 0a000000 00000000 75000000 00000000  ........u.......
 601ec0 0b000000 00000000 18000000 00000000  ................
 601ed0 15000000 00000000 00000000 00000000  ................
 601ee0 03000000 00000000 00206000 00000000  ......... `.....
 601ef0 02000000 00000000 18000000 00000000  ................
 601f00 14000000 00000000 07000000 00000000  ................
 601f10 17000000 00000000 50044000 00000000  ........P.@.....
 601f20 07000000 00000000 f0034000 00000000  ..........@.....
 601f30 08000000 00000000 60000000 00000000  ........`.......
 601f40 09000000 00000000 18000000 00000000  ................
 601f50 feffff6f 00000000 d0034000 00000000  ...o......@.....
 601f60 ffffff6f 00000000 01000000 00000000  ...o............
 601f70 f0ffff6f 00000000 be034000 00000000  ...o......@.....
 601f80 00000000 00000000 00000000 00000000  ................
 601f90 00000000 00000000 00000000 00000000  ................
 601fa0 00000000 00000000 00000000 00000000  ................
 601fb0 00000000 00000000 00000000 00000000  ................
 601fc0 00000000 00000000 00000000 00000000  ................
 601fd0 00000000 00000000 00000000 00000000  ................
Contents of section .got:
 601fe0 00000000 00000000 00000000 00000000  ................
 601ff0 00000000 00000000 00000000 00000000  ................
Contents of section .got.plt:
 602000 101e6000 00000000 00000000 00000000  ..`.............
 602010 00000000 00000000 a6044000 00000000  ..........@.....
Contents of section .data:
 602020 00000000                             ....            
Contents of section .comment:
 0000 4743433a 2028474e 55292038 2e352e30  GCC: (GNU) 8.5.0
 0010 20323032 31303531 34202852 65642048   20210514 (Red H
 0020 61742038 2e352e30 2d323229 00        at 8.5.0-22).   
Contents of section .gnu.build.attributes:
 a02028 0b000000 10000000 00010000 47412401  ............GA$.
 a02038 33703131 31330000 9f094000 00000000  3p1113....@.....
 a02048 9f094000 00000000 1f000000 00000000  ..@.............
 a02058 00010000 47412405 72756e6e 696e6720  ....GA$.running 
 a02068 67636320 382e352e 30203230 32313035  gcc 8.5.0 202105
 a02078 31340000 1f000000 00000000 00010000  14..............
 a02088 47412405 616e6e6f 62696e20 67636320  GA$.annobin gcc 
 a02098 382e352e 30203230 32313035 31340000  8.5.0 20210514..
 a020a8 1d000000 00000000 00010000 47412405  ............GA$.
 a020b8 706c7567 696e206e 616d653a 20676363  plugin name: gcc
 a020c8 2d616e6e 6f62696e 00000000 0b000000  -annobin........
 a020d8 00000000 00010000 47412a47 4f57002a  ........GA*GOW.*
 a020e8 05020000 06000000 00000000 00010000  ................
 a020f8 47412a02 00000000 0f000000 00000000  GA*.............
 a02108 00010000 47412b73 7461636b 5f636c61  ....GA+stack_cla
 a02118 73680000 13000000 00000000 00010000  sh..............
 a02128 47412a63 665f7072 6f746563 74696f6e  GA*cf_protection
 a02138 00080000 0d000000 00000000 00010000  ................
 a02148 47412a46 4f525449 465900ff 00000000  GA*FORTIFY......
 a02158 16000000 00000000 00010000 47412b47  ............GA+G
 a02168 4c494243 58585f41 53534552 54494f4e  LIBCXX_ASSERTION
 a02178 53000000 06000000 00000000 00010000  S...............
 a02188 47412a07 03000000 05000000 00000000  GA*.............
 a02198 00010000 47412108 00000000 16000000  ....GA!.........
 a021a8 00000000 00010000 47412b6f 6d69745f  ........GA+omit_
 a021b8 6672616d 655f706f 696e7465 72000000  frame_pointer...
 a021c8 06000000 00000000 00010000 47412a06  ............GA*.
 a021d8 12000000 11000000 00000000 00010000  ................
 a021e8 47412173 7461636b 5f726561 6c69676e  GA!stack_realign
 a021f8 00000000 0b000000 10000000 00010000  ................
 a02208 47412401 33703131 31330000 6f094000  GA$.3p1113..o.@.
 a02218 00000000 6f094000 00000000 1f000000  ....o.@.........
 a02228 00000000 00010000 47412405 72756e6e  ........GA$.runn
 a02238 696e6720 67636320 382e352e 30203230  ing gcc 8.5.0 20
 a02248 32313035 31340000 1f000000 00000000  210514..........
 a02258 00010000 47412405 616e6e6f 62696e20  ....GA$.annobin 
 a02268 67636320 382e352e 30203230 32313035  gcc 8.5.0 202105
 a02278 31340000 1d000000 00000000 00010000  14..............
 a02288 47412405 706c7567 696e206e 616d653a  GA$.plugin name:
 a02298 20676363 2d616e6e 6f62696e 00000000   gcc-annobin....
 a022a8 0b000000 00000000 00010000 47412a47  ............GA*G
 a022b8 4f57002a 05020000 06000000 00000000  OW.*............
 a022c8 00010000 47412a02 00000000 0f000000  ....GA*.........
 a022d8 00000000 00010000 47412b73 7461636b  ........GA+stack
 a022e8 5f636c61 73680000 13000000 00000000  _clash..........
 a022f8 00010000 47412a63 665f7072 6f746563  ....GA*cf_protec
 a02308 74696f6e 00080000 0d000000 00000000  tion............
 a02318 00010000 47412a46 4f525449 465900ff  ....GA*FORTIFY..
 a02328 00000000 16000000 00000000 00010000  ................
 a02338 47412b47 4c494243 58585f41 53534552  GA+GLIBCXX_ASSER
 a02348 54494f4e 53000000 06000000 00000000  TIONS...........
 a02358 00010000 47412a07 03000000 05000000  ....GA*.........
 a02368 00000000 00010000 47412108 00000000  ........GA!.....
 a02378 16000000 00000000 00010000 47412b6f  ............GA+o
 a02388 6d69745f 6672616d 655f706f 696e7465  mit_frame_pointe
 a02398 72000000 06000000 00000000 00010000  r...............
 a023a8 47412a06 12000000 11000000 00000000  GA*.............
 a023b8 00010000 47412173 7461636b 5f726561  ....GA!stack_rea
 a023c8 6c69676e 00000000 0b000000 10000000  lign............
 a023d8 00010000 47412401 33703131 31330000  ....GA$.3p1113..
 a023e8 b0044000 00000000 b0044000 00000000  ..@.......@.....
 a023f8 1f000000 00000000 00010000 47412405  ............GA$.
 a02408 72756e6e 696e6720 67636320 382e352e  running gcc 8.5.
 a02418 30203230 32313035 31340000 1f000000  0 20210514......
 a02428 00000000 00010000 47412405 616e6e6f  ........GA$.anno
 a02438 62696e20 67636320 382e352e 30203230  bin gcc 8.5.0 20
 a02448 32313035 31340000 1d000000 00000000  210514..........
 a02458 00010000 47412405 706c7567 696e206e  ....GA$.plugin n
 a02468 616d653a 20676363 2d616e6e 6f62696e  ame: gcc-annobin
 a02478 00000000 0b000000 00000000 00010000  ................
 a02488 47412a47 4f57002a 05020000 06000000  GA*GOW.*........
 a02498 00000000 00010000 47412a02 00000000  ........GA*.....
 a024a8 0f000000 00000000 00010000 47412b73  ............GA+s
 a024b8 7461636b 5f636c61 73680000 13000000  tack_clash......
 a024c8 00000000 00010000 47412a63 665f7072  ........GA*cf_pr
 a024d8 6f746563 74696f6e 00080000 0d000000  otection........
 a024e8 00000000 00010000 47412a46 4f525449  ........GA*FORTI
 a024f8 465900ff 00000000 16000000 00000000  FY..............
 a02508 00010000 47412b47 4c494243 58585f41  ....GA+GLIBCXX_A
 a02518 53534552 54494f4e 53000000 06000000  SSERTIONS.......
 a02528 00000000 00010000 47412a07 03000000  ........GA*.....
 a02538 05000000 00000000 00010000 47412108  ............GA!.
 a02548 00000000 16000000 00000000 00010000  ................
 a02558 47412b6f 6d69745f 6672616d 655f706f  GA+omit_frame_po
 a02568 696e7465 72000000 06000000 00000000  inter...........
 a02578 00010000 47412a06 12000000 11000000  ....GA*.........
 a02588 00000000 00010000 47412173 7461636b  ........GA!stack
 a02598 5f726561 6c69676e 00000000 0b000000  _realign........
 a025a8 10000000 00010000 47412401 33703131  ........GA$.3p11
 a025b8 31330000 b0044000 00000000 b0044000  13....@.......@.
 a025c8 00000000 1f000000 00000000 00010000  ................
 a025d8 47412405 72756e6e 696e6720 67636320  GA$.running gcc 
 a025e8 382e352e 30203230 32313035 31340000  8.5.0 20210514..
 a025f8 1f000000 00000000 00010000 47412405  ............GA$.
 a02608 616e6e6f 62696e20 67636320 382e352e  annobin gcc 8.5.
 a02618 30203230 32313035 31340000 1d000000  0 20210514......
 a02628 00000000 00010000 47412405 706c7567  ........GA$.plug
 a02638 696e206e 616d653a 20676363 2d616e6e  in name: gcc-ann
 a02648 6f62696e 00000000 0b000000 00000000  obin............
 a02658 00010000 47412a47 4f57002a 05020000  ....GA*GOW.*....
 a02668 06000000 00000000 00010000 47412a02  ............GA*.
 a02678 00000000 0f000000 00000000 00010000  ................
 a02688 47412b73 7461636b 5f636c61 73680000  GA+stack_clash..
 a02698 13000000 00000000 00010000 47412a63  ............GA*c
 a026a8 665f7072 6f746563 74696f6e 00080000  f_protection....
 a026b8 0d000000 00000000 00010000 47412a46  ............GA*F
 a026c8 4f525449 465900ff 00000000 16000000  ORTIFY..........
 a026d8 00000000 00010000 47412b47 4c494243  ........GA+GLIBC
 a026e8 58585f41 53534552 54494f4e 53000000  XX_ASSERTIONS...
 a026f8 06000000 00000000 00010000 47412a07  ............GA*.
 a02708 03000000 05000000 00000000 00010000  ................
 a02718 47412108 00000000 16000000 00000000  GA!.............
 a02728 00010000 47412b6f 6d69745f 6672616d  ....GA+omit_fram
 a02738 655f706f 696e7465 72000000 06000000  e_pointer.......
 a02748 00000000 00010000 47412a06 12000000  ........GA*.....
 a02758 11000000 00000000 00010000 47412173  ............GA!s
 a02768 7461636b 5f726561 6c69676e 00000000  tack_realign....
 a02778 0b000000 10000000 00010000 47412401  ............GA$.
 a02788 33703131 31330000 b0044000 00000000  3p1113....@.....
 a02798 b0044000 00000000 1f000000 00000000  ..@.............
 a027a8 00010000 47412405 72756e6e 696e6720  ....GA$.running 
 a027b8 67636320 382e352e 30203230 32313035  gcc 8.5.0 202105
 a027c8 31340000 1f000000 00000000 00010000  14..............
 a027d8 47412405 616e6e6f 62696e20 67636320  GA$.annobin gcc 
 a027e8 382e352e 30203230 32313035 31340000  8.5.0 20210514..
 a027f8 1d000000 00000000 00010000 47412405  ............GA$.
 a02808 706c7567 696e206e 616d653a 20676363  plugin name: gcc
 a02818 2d616e6e 6f62696e 00000000 0b000000  -annobin........
 a02828 00000000 00010000 47412a47 4f57002a  ........GA*GOW.*
 a02838 05020000 06000000 00000000 00010000  ................
 a02848 47412a02 00000000 0f000000 00000000  GA*.............
 a02858 00010000 47412b73 7461636b 5f636c61  ....GA+stack_cla
 a02868 73680000 13000000 00000000 00010000  sh..............
 a02878 47412a63 665f7072 6f746563 74696f6e  GA*cf_protection
 a02888 00080000 0d000000 00000000 00010000  ................
 a02898 47412a46 4f525449 465900ff 00000000  GA*FORTIFY......
 a028a8 16000000 00000000 00010000 47412b47  ............GA+G
 a028b8 4c494243 58585f41 53534552 54494f4e  LIBCXX_ASSERTION
 a028c8 53000000 06000000 00000000 00010000  S...............
 a028d8 47412a07 03000000 05000000 00000000  GA*.............
 a028e8 00010000 47412108 00000000 16000000  ....GA!.........
 a028f8 00000000 00010000 47412b6f 6d69745f  ........GA+omit_
 a02908 6672616d 655f706f 696e7465 72000000  frame_pointer...
 a02918 06000000 00000000 00010000 47412a06  ............GA*.
 a02928 12000000 11000000 00000000 00010000  ................
 a02938 47412173 7461636b 5f726561 6c69676e  GA!stack_realign
 a02948 00000000 0b000000 10000000 00010000  ................
 a02958 47412401 33703131 31330000 a0094000  GA$.3p1113....@.
 a02968 00000000 9f094000 00000000 1f000000  ......@.........
 a02978 00000000 00010000 47412405 72756e6e  ........GA$.runn
 a02988 696e6720 67636320 382e352e 30203230  ing gcc 8.5.0 20
 a02998 32313035 31340000 1f000000 00000000  210514..........
 a029a8 00010000 47412405 616e6e6f 62696e20  ....GA$.annobin 
 a029b8 67636320 382e352e 30203230 32313035  gcc 8.5.0 202105
 a029c8 31340000 1d000000 00000000 00010000  14..............
 a029d8 47412405 706c7567 696e206e 616d653a  GA$.plugin name:
 a029e8 20676363 2d616e6e 6f62696e 00000000   gcc-annobin....
 a029f8 0b000000 00000000 00010000 47412a47  ............GA*G
 a02a08 4f57002a 05020000 06000000 00000000  OW.*............
 a02a18 00010000 47412a02 00000000 0f000000  ....GA*.........
 a02a28 00000000 00010000 47412b73 7461636b  ........GA+stack
 a02a38 5f636c61 73680000 13000000 00000000  _clash..........
 a02a48 00010000 47412a63 665f7072 6f746563  ....GA*cf_protec
 a02a58 74696f6e 00080000 0d000000 00000000  tion............
 a02a68 00010000 47412a46 4f525449 465900ff  ....GA*FORTIFY..
 a02a78 00000000 16000000 00000000 00010000  ................
 a02a88 47412b47 4c494243 58585f41 53534552  GA+GLIBCXX_ASSER
 a02a98 54494f4e 53000000 06000000 00000000  TIONS...........
 a02aa8 00010000 47412a07 03000000 05000000  ....GA*.........
 a02ab8 00000000 00010000 47412108 00000000  ........GA!.....
 a02ac8 16000000 00000000 00010000 47412b6f  ............GA+o
 a02ad8 6d69745f 6672616d 655f706f 696e7465  mit_frame_pointe
 a02ae8 72000000 06000000 00000000 00010000  r...............
 a02af8 47412a06 12000000 11000000 00000000  GA*.............
 a02b08 00010000 47412173 7461636b 5f726561  ....GA!stack_rea
 a02b18 6c69676e 00000000 0d000000 10000000  lign............
 a02b28 01010000 47412a46 4f525449 465900ff  ....GA*FORTIFY..
 a02b38 00000000 a0094000 00000000 a5094000  ......@.......@.
 a02b48 00000000 16000000 10000000 01010000  ................
 a02b58 47412b47 4c494243 58585f41 53534552  GA+GLIBCXX_ASSER
 a02b68 54494f4e 53000000 a0094000 00000000  TIONS.....@.....
 a02b78 a5094000 00000000 0b000000 10000000  ..@.............
 a02b88 00010000 47412401 33703131 31330000  ....GA$.3p1113..
 a02b98 6f094000 00000000 6f094000 00000000  o.@.....o.@.....
 a02ba8 1f000000 00000000 00010000 47412405  ............GA$.
 a02bb8 72756e6e 696e6720 67636320 382e352e  running gcc 8.5.
 a02bc8 30203230 32313035 31340000 1f000000  0 20210514......
 a02bd8 00000000 00010000 47412405 616e6e6f  ........GA$.anno
 a02be8 62696e20 67636320 382e352e 30203230  bin gcc 8.5.0 20
 a02bf8 32313035 31340000 1d000000 00000000  210514..........
 a02c08 00010000 47412405 706c7567 696e206e  ....GA$.plugin n
 a02c18 616d653a 20676363 2d616e6e 6f62696e  ame: gcc-annobin
 a02c28 00000000 0b000000 00000000 00010000  ................
 a02c38 47412a47 4f57002a 05020000 06000000  GA*GOW.*........
 a02c48 00000000 00010000 47412a02 00000000  ........GA*.....
 a02c58 0f000000 00000000 00010000 47412b73  ............GA+s
 a02c68 7461636b 5f636c61 73680000 13000000  tack_clash......
 a02c78 00000000 00010000 47412a63 665f7072  ........GA*cf_pr
 a02c88 6f746563 74696f6e 00080000 0d000000  otection........
 a02c98 00000000 00010000 47412a46 4f525449  ........GA*FORTI
 a02ca8 465900ff 00000000 16000000 00000000  FY..............
 a02cb8 00010000 47412b47 4c494243 58585f41  ....GA+GLIBCXX_A
 a02cc8 53534552 54494f4e 53000000 06000000  SSERTIONS.......
 a02cd8 00000000 00010000 47412a07 03000000  ........GA*.....
 a02ce8 05000000 00000000 00010000 47412108  ............GA!.
 a02cf8 00000000 16000000 00000000 00010000  ................
 a02d08 47412b6f 6d69745f 6672616d 655f706f  GA+omit_frame_po
 a02d18 696e7465 72000000 06000000 00000000  inter...........
 a02d28 00010000 47412a06 12000000 11000000  ....GA*.........
 a02d38 00000000 00010000 47412173 7461636b  ........GA!stack
 a02d48 5f726561 6c69676e 00000000 0b000000  _realign........
 a02d58 10000000 00010000 47412401 33703131  ........GA$.3p11
 a02d68 31330000 b0044000 00000000 b0044000  13....@.......@.
 a02d78 00000000 1f000000 00000000 00010000  ................
 a02d88 47412405 72756e6e 696e6720 67636320  GA$.running gcc 
 a02d98 382e352e 30203230 32313035 31340000  8.5.0 20210514..
 a02da8 1f000000 00000000 00010000 47412405  ............GA$.
 a02db8 616e6e6f 62696e20 67636320 382e352e  annobin gcc 8.5.
 a02dc8 30203230 32313035 31340000 1d000000  0 20210514......
 a02dd8 00000000 00010000 47412405 706c7567  ........GA$.plug
 a02de8 696e206e 616d653a 20676363 2d616e6e  in name: gcc-ann
 a02df8 6f62696e 00000000 0b000000 00000000  obin............
 a02e08 00010000 47412a47 4f57002a 05020000  ....GA*GOW.*....
 a02e18 06000000 00000000 00010000 47412a02  ............GA*.
 a02e28 00000000 0f000000 00000000 00010000  ................
 a02e38 47412b73 7461636b 5f636c61 73680000  GA+stack_clash..
 a02e48 13000000 00000000 00010000 47412a63  ............GA*c
 a02e58 665f7072 6f746563 74696f6e 00080000  f_protection....
 a02e68 0d000000 00000000 00010000 47412a46  ............GA*F
 a02e78 4f525449 465900ff 00000000 16000000  ORTIFY..........
 a02e88 00000000 00010000 47412b47 4c494243  ........GA+GLIBC
 a02e98 58585f41 53534552 54494f4e 53000000  XX_ASSERTIONS...
 a02ea8 06000000 00000000 00010000 47412a07  ............GA*.
 a02eb8 03000000 05000000 00000000 00010000  ................
 a02ec8 47412108 00000000 16000000 00000000  GA!.............
 a02ed8 00010000 47412b6f 6d69745f 6672616d  ....GA+omit_fram
 a02ee8 655f706f 696e7465 72000000 06000000  e_pointer.......
 a02ef8 00000000 00010000 47412a06 12000000  ........GA*.....
 a02f08 11000000 00000000 00010000 47412173  ............GA!s
 a02f18 7461636b 5f726561 6c69676e 00000000  tack_realign....
 a02f28 0b000000 10000000 00010000 47412401  ............GA$.
 a02f38 33703131 31330000 b0044000 00000000  3p1113....@.....
 a02f48 b0044000 00000000 1f000000 00000000  ..@.............
 a02f58 00010000 47412405 72756e6e 696e6720  ....GA$.running 
 a02f68 67636320 382e352e 30203230 32313035  gcc 8.5.0 202105
 a02f78 31340000 1f000000 00000000 00010000  14..............
 a02f88 47412405 616e6e6f 62696e20 67636320  GA$.annobin gcc 
 a02f98 382e352e 30203230 32313035 31340000  8.5.0 20210514..
 a02fa8 1d000000 00000000 00010000 47412405  ............GA$.
 a02fb8 706c7567 696e206e 616d653a 20676363  plugin name: gcc
 a02fc8 2d616e6e 6f62696e 00000000 0b000000  -annobin........
 a02fd8 00000000 00010000 47412a47 4f57002a  ........GA*GOW.*
 a02fe8 05020000 06000000 00000000 00010000  ................
 a02ff8 47412a02 00000000 0f000000 00000000  GA*.............
 a03008 00010000 47412b73 7461636b 5f636c61  ....GA+stack_cla
 a03018 73680000 13000000 00000000 00010000  sh..............
 a03028 47412a63 665f7072 6f746563 74696f6e  GA*cf_protection
 a03038 00080000 0d000000 00000000 00010000  ................
 a03048 47412a46 4f525449 465900ff 00000000  GA*FORTIFY......
 a03058 16000000 00000000 00010000 47412b47  ............GA+G
 a03068 4c494243 58585f41 53534552 54494f4e  LIBCXX_ASSERTION
 a03078 53000000 06000000 00000000 00010000  S...............
 a03088 47412a07 03000000 05000000 00000000  GA*.............
 a03098 00010000 47412108 00000000 16000000  ....GA!.........
 a030a8 00000000 00010000 47412b6f 6d69745f  ........GA+omit_
 a030b8 6672616d 655f706f 696e7465 72000000  frame_pointer...
 a030c8 06000000 00000000 00010000 47412a06  ............GA*.
 a030d8 12000000 11000000 00000000 00010000  ................
 a030e8 47412173 7461636b 5f726561 6c69676e  GA!stack_realign
 a030f8 00000000 0b000000 10000000 00010000  ................
 a03108 47412401 33703131 31330000 b0044000  GA$.3p1113....@.
 a03118 00000000 b0044000 00000000 1f000000  ......@.........
 a03128 00000000 00010000 47412405 72756e6e  ........GA$.runn
 a03138 696e6720 67636320 382e352e 30203230  ing gcc 8.5.0 20
 a03148 32313035 31340000 1f000000 00000000  210514..........
 a03158 00010000 47412405 616e6e6f 62696e20  ....GA$.annobin 
 a03168 67636320 382e352e 30203230 32313035  gcc 8.5.0 202105
 a03178 31340000 1d000000 00000000 00010000  14..............
 a03188 47412405 706c7567 696e206e 616d653a  GA$.plugin name:
 a03198 20676363 2d616e6e 6f62696e 00000000   gcc-annobin....
 a031a8 0b000000 00000000 00010000 47412a47  ............GA*G
 a031b8 4f57002a 05020000 06000000 00000000  OW.*............
 a031c8 00010000 47412a02 00000000 0f000000  ....GA*.........
 a031d8 00000000 00010000 47412b73 7461636b  ........GA+stack
 a031e8 5f636c61 73680000 13000000 00000000  _clash..........
 a031f8 00010000 47412a63 665f7072 6f746563  ....GA*cf_protec
 a03208 74696f6e 00080000 0d000000 00000000  tion............
 a03218 00010000 47412a46 4f525449 465900ff  ....GA*FORTIFY..
 a03228 00000000 16000000 00000000 00010000  ................
 a03238 47412b47 4c494243 58585f41 53534552  GA+GLIBCXX_ASSER
 a03248 54494f4e 53000000 06000000 00000000  TIONS...........
 a03258 00010000 47412a07 03000000 05000000  ....GA*.........
 a03268 00000000 00010000 47412108 00000000  ........GA!.....
 a03278 16000000 00000000 00010000 47412b6f  ............GA+o
 a03288 6d69745f 6672616d 655f706f 696e7465  mit_frame_pointe
 a03298 72000000 06000000 00000000 00010000  r...............
 a032a8 47412a06 12000000 11000000 00000000  GA*.............
 a032b8 00010000 47412173 7461636b 5f726561  ....GA!stack_rea
 a032c8 6c69676e 00000000 08000000 10000000  lign............
 a032d8 00010000 47412401 33613100 70094000  ....GA$.3a1.p.@.
 a032e8 00000000 9f094000 00000000 08000000  ......@.........
 a032f8 10000000 00010000 47412401 33613100  ........GA$.3a1.
 a03308 9f094000 00000000 9f094000 00000000  ..@.......@.....
 a03318 08000000 10000000 00010000 47412401  ............GA$.
 a03328 33613100 a5094000 00000000 a5094000  3a1...@.......@.
 a03338 00000000 08000000 10000000 00010000  ................
 a03348 47412401 33613100 68044000 00000000  GA$.3a1.h.@.....
 a03358 7e044000 00000000 08000000 10000000  ~.@.............
 a03368 00010000 47412401 33613100 a80d4000  ....GA$.3a1...@.
 a03378 00000000 b00d4000 00000000 08000000  ......@.........
 a03388 10000000 00010000 47412401 33613100  ........GA$.3a1.
 a03398 b0094000 00000000 560a4000 00000000  ..@.....V.@.....
 a033a8 0b000000 10000000 00010000 47412401  ............GA$.
 a033b8 33703131 31330000 300d4000 00000000  3p1113..0.@.....
 a033c8 a50d4000 00000000 1f000000 00000000  ..@.............
 a033d8 00010000 47412405 72756e6e 696e6720  ....GA$.running 
 a033e8 67636320 382e352e 30203230 32313035  gcc 8.5.0 202105
 a033f8 31340000 1f000000 00000000 00010000  14..............
 a03408 47412405 616e6e6f 62696e20 67636320  GA$.annobin gcc 
 a03418 382e352e 30203230 32313035 31340000  8.5.0 20210514..
 a03428 1d000000 00000000 00010000 47412405  ............GA$.
 a03438 706c7567 696e206e 616d653a 20676363  plugin name: gcc
 a03448 2d616e6e 6f62696e 00000000 0b000000  -annobin........
 a03458 00000000 00010000 47412a47 4f57002a  ........GA*GOW.*
 a03468 05020000 06000000 00000000 00010000  ................
 a03478 47412a02 03000000 0f000000 00000000  GA*.............
 a03488 00010000 47412b73 7461636b 5f636c61  ....GA+stack_cla
 a03498 73680000 13000000 00000000 00010000  sh..............
 a034a8 47412a63 665f7072 6f746563 74696f6e  GA*cf_protection
 a034b8 00080000 0d000000 00000000 00010000  ................
 a034c8 47412a46 4f525449 46590002 00000000  GA*FORTIFY......
 a034d8 16000000 00000000 00010000 47412b47  ............GA+G
 a034e8 4c494243 58585f41 53534552 54494f4e  LIBCXX_ASSERTION
 a034f8 53000000 06000000 00000000 00010000  S...............
 a03508 47412a07 02000000 05000000 00000000  GA*.............
 a03518 00010000 47412108 00000000 16000000  ....GA!.........
 a03528 00000000 00010000 47412b6f 6d69745f  ........GA+omit_
 a03538 6672616d 655f706f 696e7465 72000000  frame_pointer...
 a03548 06000000 00000000 00010000 47412a06  ............GA*.
 a03558 12000000 11000000 00000000 00010000  ................
 a03568 47412173 7461636b 5f726561 6c69676e  GA!stack_realign
 a03578 00000000 0d000000 10000000 01010000  ................
 a03588 47412a46 4f525449 46590002 00000000  GA*FORTIFY......
 a03598 300d4000 00000000 950d4000 00000000  0.@.......@.....
 a035a8 16000000 10000000 01010000 47412b47  ............GA+G
 a035b8 4c494243 58585f41 53534552 54494f4e  LIBCXX_ASSERTION
 a035c8 53000000 300d4000 00000000 950d4000  S...0.@.......@.
 a035d8 00000000 0d000000 10000000 01010000  ................
 a035e8 47412a46 4f525449 46590002 00000000  GA*FORTIFY......
 a035f8 950d4000 00000000 a50d4000 00000000  ..@.......@.....
 a03608 16000000 10000000 01010000 47412b47  ............GA+G
 a03618 4c494243 58585f41 53534552 54494f4e  LIBCXX_ASSERTION
 a03628 53000000 950d4000 00000000 a50d4000  S.....@.......@.
 a03638 00000000 0b000000 10000000 00010000  ................
 a03648 47412401 33703131 31330000 6f094000  GA$.3p1113..o.@.
 a03658 00000000 6f094000 00000000 1f000000  ....o.@.........
 a03668 00000000 00010000 47412405 72756e6e  ........GA$.runn
 a03678 696e6720 67636320 382e352e 30203230  ing gcc 8.5.0 20
 a03688 32313035 31340000 1f000000 00000000  210514..........
 a03698 00010000 47412405 616e6e6f 62696e20  ....GA$.annobin 
 a036a8 67636320 382e352e 30203230 32313035  gcc 8.5.0 202105
 a036b8 31340000 1d000000 00000000 00010000  14..............
 a036c8 47412405 706c7567 696e206e 616d653a  GA$.plugin name:
 a036d8 20676363 2d616e6e 6f62696e 00000000   gcc-annobin....
 a036e8 0b000000 00000000 00010000 47412a47  ............GA*G
 a036f8 4f57002a 05020000 06000000 00000000  OW.*............
 a03708 00010000 47412a02 03000000 0f000000  ....GA*.........
 a03718 00000000 00010000 47412b73 7461636b  ........GA+stack
 a03728 5f636c61 73680000 13000000 00000000  _clash..........
 a03738 00010000 47412a63 665f7072 6f746563  ....GA*cf_protec
 a03748 74696f6e 00080000 0d000000 00000000  tion............
 a03758 00010000 47412a46 4f525449 46590002  ....GA*FORTIFY..
 a03768 00000000 16000000 00000000 00010000  ................
 a03778 47412b47 4c494243 58585f41 53534552  GA+GLIBCXX_ASSER
 a03788 54494f4e 53000000 06000000 00000000  TIONS...........
 a03798 00010000 47412a07 02000000 05000000  ....GA*.........
 a037a8 00000000 00010000 47412108 00000000  ........GA!.....
 a037b8 16000000 00000000 00010000 47412b6f  ............GA+o
 a037c8 6d69745f 6672616d 655f706f 696e7465  mit_frame_pointe
 a037d8 72000000 06000000 00000000 00010000  r...............
 a037e8 47412a06 12000000 11000000 00000000  GA*.............
 a037f8 00010000 47412173 7461636b 5f726561  ....GA!stack_rea
 a03808 6c69676e 00000000 0b000000 10000000  lign............
 a03818 00010000 47412401 33703131 31330000  ....GA$.3p1113..
 a03828 b0044000 00000000 b0044000 00000000  ..@.......@.....
 a03838 1f000000 00000000 00010000 47412405  ............GA$.
 a03848 72756e6e 696e6720 67636320 382e352e  running gcc 8.5.
 a03858 30203230 32313035 31340000 1f000000  0 20210514......
 a03868 00000000 00010000 47412405 616e6e6f  ........GA$.anno
 a03878 62696e20 67636320 382e352e 30203230  bin gcc 8.5.0 20
 a03888 32313035 31340000 1d000000 00000000  210514..........
 a03898 00010000 47412405 706c7567 696e206e  ....GA$.plugin n
 a038a8 616d653a 20676363 2d616e6e 6f62696e  ame: gcc-annobin
 a038b8 00000000 0b000000 00000000 00010000  ................
 a038c8 47412a47 4f57002a 05020000 06000000  GA*GOW.*........
 a038d8 00000000 00010000 47412a02 03000000  ........GA*.....
 a038e8 0f000000 00000000 00010000 47412b73  ............GA+s
 a038f8 7461636b 5f636c61 73680000 13000000  tack_clash......
 a03908 00000000 00010000 47412a63 665f7072  ........GA*cf_pr
 a03918 6f746563 74696f6e 00080000 0d000000  otection........
 a03928 00000000 00010000 47412a46 4f525449  ........GA*FORTI
 a03938 46590002 00000000 16000000 00000000  FY..............
 a03948 00010000 47412b47 4c494243 58585f41  ....GA+GLIBCXX_A
 a03958 53534552 54494f4e 53000000 06000000  SSERTIONS.......
 a03968 00000000 00010000 47412a07 02000000  ........GA*.....
 a03978 05000000 00000000 00010000 47412108  ............GA!.
 a03988 00000000 16000000 00000000 00010000  ................
 a03998 47412b6f 6d69745f 6672616d 655f706f  GA+omit_frame_po
 a039a8 696e7465 72000000 06000000 00000000  inter...........
 a039b8 00010000 47412a06 12000000 11000000  ....GA*.........
 a039c8 00000000 00010000 47412173 7461636b  ........GA!stack
 a039d8 5f726561 6c69676e 00000000 0b000000  _realign........
 a039e8 10000000 00010000 47412401 33703131  ........GA$.3p11
 a039f8 31330000 6f094000 00000000 6f094000  13..o.@.....o.@.
 a03a08 00000000 1f000000 00000000 00010000  ................
 a03a18 47412405 72756e6e 696e6720 67636320  GA$.running gcc 
 a03a28 382e352e 30203230 32313035 31340000  8.5.0 20210514..
 a03a38 1f000000 00000000 00010000 47412405  ............GA$.
 a03a48 616e6e6f 62696e20 67636320 382e352e  annobin gcc 8.5.
 a03a58 30203230 32313035 31340000 1d000000  0 20210514......
 a03a68 00000000 00010000 47412405 706c7567  ........GA$.plug
 a03a78 696e206e 616d653a 20676363 2d616e6e  in name: gcc-ann
 a03a88 6f62696e 00000000 0b000000 00000000  obin............
 a03a98 00010000 47412a47 4f57002a 05020000  ....GA*GOW.*....
 a03aa8 06000000 00000000 00010000 47412a02  ............GA*.
 a03ab8 03000000 0f000000 00000000 00010000  ................
 a03ac8 47412b73 7461636b 5f636c61 73680000  GA+stack_clash..
 a03ad8 13000000 00000000 00010000 47412a63  ............GA*c
 a03ae8 665f7072 6f746563 74696f6e 00080000  f_protection....
 a03af8 0d000000 00000000 00010000 47412a46  ............GA*F
 a03b08 4f525449 46590002 00000000 16000000  ORTIFY..........
 a03b18 00000000 00010000 47412b47 4c494243  ........GA+GLIBC
 a03b28 58585f41 53534552 54494f4e 53000000  XX_ASSERTIONS...
 a03b38 06000000 00000000 00010000 47412a07  ............GA*.
 a03b48 02000000 05000000 00000000 00010000  ................
 a03b58 47412108 00000000 16000000 00000000  GA!.............
 a03b68 00010000 47412b6f 6d69745f 6672616d  ....GA+omit_fram
 a03b78 655f706f 696e7465 72000000 06000000  e_pointer.......
 a03b88 00000000 00010000 47412a06 12000000  ........GA*.....
 a03b98 11000000 00000000 00010000 47412173  ............GA!s
 a03ba8 7461636b 5f726561 6c69676e 00000000  tack_realign....
 a03bb8 0b000000 10000000 00010000 47412401  ............GA$.
 a03bc8 33703131 31330000 b0044000 00000000  3p1113....@.....
 a03bd8 b0044000 00000000 1f000000 00000000  ..@.............
 a03be8 00010000 47412405 72756e6e 696e6720  ....GA$.running 
 a03bf8 67636320 382e352e 30203230 32313035  gcc 8.5.0 202105
 a03c08 31340000 1f000000 00000000 00010000  14..............
 a03c18 47412405 616e6e6f 62696e20 67636320  GA$.annobin gcc 
 a03c28 382e352e 30203230 32313035 31340000  8.5.0 20210514..
 a03c38 1d000000 00000000 00010000 47412405  ............GA$.
 a03c48 706c7567 696e206e 616d653a 20676363  plugin name: gcc
 a03c58 2d616e6e 6f62696e 00000000 0b000000  -annobin........
 a03c68 00000000 00010000 47412a47 4f57002a  ........GA*GOW.*
 a03c78 05020000 06000000 00000000 00010000  ................
 a03c88 47412a02 03000000 0f000000 00000000  GA*.............
 a03c98 00010000 47412b73 7461636b 5f636c61  ....GA+stack_cla
 a03ca8 73680000 13000000 00000000 00010000  sh..............
 a03cb8 47412a63 665f7072 6f746563 74696f6e  GA*cf_protection
 a03cc8 00080000 0d000000 00000000 00010000  ................
 a03cd8 47412a46 4f525449 46590002 00000000  GA*FORTIFY......
 a03ce8 16000000 00000000 00010000 47412b47  ............GA+G
 a03cf8 4c494243 58585f41 53534552 54494f4e  LIBCXX_ASSERTION
 a03d08 53000000 06000000 00000000 00010000  S...............
 a03d18 47412a07 02000000 05000000 00000000  GA*.............
 a03d28 00010000 47412108 00000000 16000000  ....GA!.........
 a03d38 00000000 00010000 47412b6f 6d69745f  ........GA+omit_
 a03d48 6672616d 655f706f 696e7465 72000000  frame_pointer...
 a03d58 06000000 00000000 00010000 47412a06  ............GA*.
 a03d68 12000000 11000000 00000000 00010000  ................
 a03d78 47412173 7461636b 5f726561 6c69676e  GA!stack_realign
 a03d88 00000000 08000000 10000000 00010000  ................
 a03d98 47412401 33613100 a50d4000 00000000  GA$.3a1...@.....
 a03da8 a50d4000 00000000 08000000 10000000  ..@.............
 a03db8 00010000 47412401 33613100 a50d4000  ....GA$.3a1...@.
 a03dc8 00000000 a50d4000 00000000 08000000  ......@.........
 a03dd8 10000000 00010000 47412401 33613100  ........GA$.3a1.
 a03de8 7e044000 00000000 83044000 00000000  ~.@.......@.....
 a03df8 08000000 10000000 00010000 47412401  ............GA$.
 a03e08 33613100 b00d4000 00000000 b50d4000  3a1...@.......@.
 a03e18 00000000                             ....            

Disassembly of section .init:

0000000000400468 <_init>:
  400468:	f3 0f 1e fa          	endbr64 
  40046c:	48 83 ec 08          	sub    $0x8,%rsp
  400470:	48 8b 05 79 1b 20 00 	mov    0x201b79(%rip),%rax        # 601ff0 <__gmon_start__@Base>
  400477:	48 85 c0             	test   %rax,%rax
  40047a:	74 02                	je     40047e <_init+0x16>
  40047c:	ff d0                	callq  *%rax
  40047e:	48 83 c4 08          	add    $0x8,%rsp
  400482:	c3                   	retq   

Disassembly of section .plt:

0000000000400490 <.plt>:
  400490:	ff 35 72 1b 20 00    	pushq  0x201b72(%rip)        # 602008 <_GLOBAL_OFFSET_TABLE_+0x8>
  400496:	ff 25 74 1b 20 00    	jmpq   *0x201b74(%rip)        # 602010 <_GLOBAL_OFFSET_TABLE_+0x10>
  40049c:	0f 1f 40 00          	nopl   0x0(%rax)

00000000004004a0 <printf@plt>:
  4004a0:	ff 25 72 1b 20 00    	jmpq   *0x201b72(%rip)        # 602018 <printf@GLIBC_2.2.5>
  4004a6:	68 00 00 00 00       	pushq  $0x0
  4004ab:	e9 e0 ff ff ff       	jmpq   400490 <.plt>

Disassembly of section .text:

00000000004004b0 <main>:
  4004b0:	48 b8 00 00 80 3f 00 	movabs $0x400000003f800000,%rax
  4004b7:	00 00 40 
  4004ba:	53                   	push   %rbx
  4004bb:	c5 f9 ef c0          	vpxor  %xmm0,%xmm0,%xmm0
  4004bf:	48 ba 00 00 00 00 00 	movabs $0x4110000000000000,%rdx
  4004c6:	00 10 41 
  4004c9:	48 81 ec 80 02 00 00 	sub    $0x280,%rsp
  4004d0:	48 89 44 24 40       	mov    %rax,0x40(%rsp)
  4004d5:	48 b8 00 00 40 40 00 	movabs $0x4080000040400000,%rax
  4004dc:	00 80 40 
  4004df:	48 89 44 24 48       	mov    %rax,0x48(%rsp)
  4004e4:	48 b8 00 00 a0 40 00 	movabs $0x40c0000040a00000,%rax
  4004eb:	00 c0 40 
  4004ee:	48 89 44 24 50       	mov    %rax,0x50(%rsp)
  4004f3:	48 b8 00 00 e0 40 00 	movabs $0x4100000040e00000,%rax
  4004fa:	00 00 41 
  4004fd:	48 89 44 24 58       	mov    %rax,0x58(%rsp)
  400502:	48 b8 00 00 10 41 00 	movabs $0x4120000041100000,%rax
  400509:	00 20 41 
  40050c:	48 89 44 24 60       	mov    %rax,0x60(%rsp)
  400511:	48 b8 00 00 30 41 00 	movabs $0x4140000041300000,%rax
  400518:	00 40 41 
  40051b:	48 89 44 24 68       	mov    %rax,0x68(%rsp)
  400520:	48 b8 00 00 50 41 00 	movabs $0x4160000041500000,%rax
  400527:	00 60 41 
  40052a:	48 89 44 24 70       	mov    %rax,0x70(%rsp)
  40052f:	48 b8 00 00 70 41 00 	movabs $0x4180000041700000,%rax
  400536:	00 80 41 
  400539:	48 89 44 24 78       	mov    %rax,0x78(%rsp)
  40053e:	48 b8 00 00 88 41 00 	movabs $0x4190000041880000,%rax
  400545:	00 90 41 
  400548:	48 89 84 24 80 00 00 	mov    %rax,0x80(%rsp)
  40054f:	00 
  400550:	48 b8 00 00 98 41 00 	movabs $0x41a0000041980000,%rax
  400557:	00 a0 41 
  40055a:	48 89 84 24 88 00 00 	mov    %rax,0x88(%rsp)
  400561:	00 
  400562:	48 b8 00 00 a8 41 00 	movabs $0x41b0000041a80000,%rax
  400569:	00 b0 41 
  40056c:	48 89 84 24 90 00 00 	mov    %rax,0x90(%rsp)
  400573:	00 
  400574:	48 b8 00 00 b8 41 00 	movabs $0x41c0000041b80000,%rax
  40057b:	00 c0 41 
  40057e:	48 89 84 24 98 00 00 	mov    %rax,0x98(%rsp)
  400585:	00 
  400586:	48 b8 00 00 c8 41 00 	movabs $0x41d0000041c80000,%rax
  40058d:	00 d0 41 
  400590:	48 89 84 24 a0 00 00 	mov    %rax,0xa0(%rsp)
  400597:	00 
  400598:	48 b8 00 00 d8 41 00 	movabs $0x41e0000041d80000,%rax
  40059f:	00 e0 41 
  4005a2:	48 89 84 24 a8 00 00 	mov    %rax,0xa8(%rsp)
  4005a9:	00 
  4005aa:	48 b8 00 00 e8 41 00 	movabs $0x41f0000041e80000,%rax
  4005b1:	00 f0 41 
  4005b4:	48 89 84 24 b0 00 00 	mov    %rax,0xb0(%rsp)
  4005bb:	00 
  4005bc:	48 b8 00 00 f8 41 00 	movabs $0x4200000041f80000,%rax
  4005c3:	00 00 42 
  4005c6:	48 89 84 24 b8 00 00 	mov    %rax,0xb8(%rsp)
  4005cd:	00 
  4005ce:	48 b8 00 00 04 42 00 	movabs $0x4208000042040000,%rax
  4005d5:	00 08 42 
  4005d8:	48 89 84 24 c0 00 00 	mov    %rax,0xc0(%rsp)
  4005df:	00 
  4005e0:	48 b8 00 00 0c 42 00 	movabs $0x42100000420c0000,%rax
  4005e7:	00 10 42 
  4005ea:	48 89 84 24 c8 00 00 	mov    %rax,0xc8(%rsp)
  4005f1:	00 
  4005f2:	48 b8 00 00 14 42 00 	movabs $0x4218000042140000,%rax
  4005f9:	00 18 42 
  4005fc:	48 89 84 24 d0 00 00 	mov    %rax,0xd0(%rsp)
  400603:	00 
  400604:	48 b8 00 00 1c 42 00 	movabs $0x42200000421c0000,%rax
  40060b:	00 20 42 
  40060e:	48 89 84 24 d8 00 00 	mov    %rax,0xd8(%rsp)
  400615:	00 
  400616:	48 b8 00 00 24 42 00 	movabs $0x4228000042240000,%rax
  40061d:	00 28 42 
  400620:	48 89 84 24 e0 00 00 	mov    %rax,0xe0(%rsp)
  400627:	00 
  400628:	48 b8 00 00 2c 42 00 	movabs $0x42300000422c0000,%rax
  40062f:	00 30 42 
  400632:	48 89 84 24 e8 00 00 	mov    %rax,0xe8(%rsp)
  400639:	00 
  40063a:	48 b8 00 00 34 42 00 	movabs $0x4238000042340000,%rax
  400641:	00 38 42 
  400644:	48 89 84 24 f0 00 00 	mov    %rax,0xf0(%rsp)
  40064b:	00 
  40064c:	48 b8 00 00 3c 42 00 	movabs $0x42400000423c0000,%rax
  400653:	00 40 42 
  400656:	48 89 84 24 f8 00 00 	mov    %rax,0xf8(%rsp)
  40065d:	00 
  40065e:	48 b8 00 00 40 42 00 	movabs $0x423c000042400000,%rax
  400665:	00 3c 42 
  400668:	48 89 84 24 00 01 00 	mov    %rax,0x100(%rsp)
  40066f:	00 
  400670:	48 b8 00 00 38 42 00 	movabs $0x4234000042380000,%rax
  400677:	00 34 42 
  40067a:	48 89 84 24 08 01 00 	mov    %rax,0x108(%rsp)
  400681:	00 
  400682:	48 b8 00 00 30 42 00 	movabs $0x422c000042300000,%rax
  400689:	00 2c 42 
  40068c:	48 89 84 24 10 01 00 	mov    %rax,0x110(%rsp)
  400693:	00 
  400694:	48 b8 00 00 28 42 00 	movabs $0x4224000042280000,%rax
  40069b:	00 24 42 
  40069e:	48 89 84 24 18 01 00 	mov    %rax,0x118(%rsp)
  4006a5:	00 
  4006a6:	48 b8 00 00 20 42 00 	movabs $0x421c000042200000,%rax
  4006ad:	00 1c 42 
  4006b0:	48 89 84 24 20 01 00 	mov    %rax,0x120(%rsp)
  4006b7:	00 
  4006b8:	48 b8 00 00 18 42 00 	movabs $0x4214000042180000,%rax
  4006bf:	00 14 42 
  4006c2:	48 89 84 24 28 01 00 	mov    %rax,0x128(%rsp)
  4006c9:	00 
  4006ca:	48 b8 00 00 10 42 00 	movabs $0x420c000042100000,%rax
  4006d1:	00 0c 42 
  4006d4:	48 89 84 24 30 01 00 	mov    %rax,0x130(%rsp)
  4006db:	00 
  4006dc:	48 b8 00 00 08 42 00 	movabs $0x4204000042080000,%rax
  4006e3:	00 04 42 
  4006e6:	48 89 84 24 38 01 00 	mov    %rax,0x138(%rsp)
  4006ed:	00 
  4006ee:	48 b8 00 00 00 42 00 	movabs $0x41f8000042000000,%rax
  4006f5:	00 f8 41 
  4006f8:	48 89 84 24 40 01 00 	mov    %rax,0x140(%rsp)
  4006ff:	00 
  400700:	48 b8 00 00 f0 41 00 	movabs $0x41e8000041f00000,%rax
  400707:	00 e8 41 
  40070a:	48 89 84 24 48 01 00 	mov    %rax,0x148(%rsp)
  400711:	00 
  400712:	48 b8 00 00 e0 41 00 	movabs $0x41d8000041e00000,%rax
  400719:	00 d8 41 
  40071c:	48 89 84 24 50 01 00 	mov    %rax,0x150(%rsp)
  400723:	00 
  400724:	48 b8 00 00 d0 41 00 	movabs $0x41c8000041d00000,%rax
  40072b:	00 c8 41 
  40072e:	48 89 84 24 58 01 00 	mov    %rax,0x158(%rsp)
  400735:	00 
  400736:	48 b8 00 00 c0 41 00 	movabs $0x41b8000041c00000,%rax
  40073d:	00 b8 41 
  400740:	48 89 84 24 60 01 00 	mov    %rax,0x160(%rsp)
  400747:	00 
  400748:	48 b8 00 00 b0 41 00 	movabs $0x41a8000041b00000,%rax
  40074f:	00 a8 41 
  400752:	48 89 84 24 68 01 00 	mov    %rax,0x168(%rsp)
  400759:	00 
  40075a:	48 b8 00 00 a0 41 00 	movabs $0x4198000041a00000,%rax
  400761:	00 98 41 
  400764:	48 89 84 24 70 01 00 	mov    %rax,0x170(%rsp)
  40076b:	00 
  40076c:	48 b8 00 00 90 41 00 	movabs $0x4188000041900000,%rax
  400773:	00 88 41 
  400776:	48 89 84 24 78 01 00 	mov    %rax,0x178(%rsp)
  40077d:	00 
  40077e:	48 b8 00 00 80 41 00 	movabs $0x4170000041800000,%rax
  400785:	00 70 41 
  400788:	48 89 84 24 80 01 00 	mov    %rax,0x180(%rsp)
  40078f:	00 
  400790:	48 b8 00 00 60 41 00 	movabs $0x4150000041600000,%rax
  400797:	00 50 41 
  40079a:	48 89 84 24 88 01 00 	mov    %rax,0x188(%rsp)
  4007a1:	00 
  4007a2:	48 b8 00 00 40 41 00 	movabs $0x4130000041400000,%rax
  4007a9:	00 30 41 
  4007ac:	48 89 84 24 90 01 00 	mov    %rax,0x190(%rsp)
  4007b3:	00 
  4007b4:	48 b8 00 00 20 41 00 	movabs $0x4110000041200000,%rax
  4007bb:	00 10 41 
  4007be:	48 89 84 24 98 01 00 	mov    %rax,0x198(%rsp)
  4007c5:	00 
  4007c6:	48 b8 00 00 00 41 00 	movabs $0x40e0000041000000,%rax
  4007cd:	00 e0 40 
  4007d0:	48 89 84 24 a0 01 00 	mov    %rax,0x1a0(%rsp)
  4007d7:	00 
  4007d8:	48 b8 00 00 c0 40 00 	movabs $0x40a0000040c00000,%rax
  4007df:	00 a0 40 
  4007e2:	48 89 84 24 a8 01 00 	mov    %rax,0x1a8(%rsp)
  4007e9:	00 
  4007ea:	48 b8 00 00 80 40 00 	movabs $0x4040000040800000,%rax
  4007f1:	00 40 40 
  4007f4:	48 89 84 24 b0 01 00 	mov    %rax,0x1b0(%rsp)
  4007fb:	00 
  4007fc:	48 b8 00 00 00 40 00 	movabs $0x3f80000040000000,%rax
  400803:	00 80 3f 
  400806:	48 89 84 24 b8 01 00 	mov    %rax,0x1b8(%rsp)
  40080d:	00 
  40080e:	48 b8 00 00 00 40 00 	movabs $0x4110000040000000,%rax
  400815:	00 10 41 
  400818:	48 89 94 24 c0 01 00 	mov    %rdx,0x1c0(%rsp)
  40081f:	00 
  400820:	48 89 84 24 c8 01 00 	mov    %rax,0x1c8(%rsp)
  400827:	00 
  400828:	48 89 84 24 d0 01 00 	mov    %rax,0x1d0(%rsp)
  40082f:	00 
  400830:	48 89 84 24 d8 01 00 	mov    %rax,0x1d8(%rsp)
  400837:	00 
  400838:	48 89 94 24 e0 01 00 	mov    %rdx,0x1e0(%rsp)
  40083f:	00 
  400840:	48 89 84 24 e8 01 00 	mov    %rax,0x1e8(%rsp)
  400847:	00 
  400848:	48 89 84 24 f0 01 00 	mov    %rax,0x1f0(%rsp)
  40084f:	00 
  400850:	48 89 84 24 f8 01 00 	mov    %rax,0x1f8(%rsp)
  400857:	00 
  400858:	48 89 94 24 00 02 00 	mov    %rdx,0x200(%rsp)
  40085f:	00 
  400860:	48 89 84 24 08 02 00 	mov    %rax,0x208(%rsp)
  400867:	00 
  400868:	48 89 84 24 10 02 00 	mov    %rax,0x210(%rsp)
  40086f:	00 
  400870:	48 89 84 24 18 02 00 	mov    %rax,0x218(%rsp)
  400877:	00 
  400878:	48 89 94 24 20 02 00 	mov    %rdx,0x220(%rsp)
  40087f:	00 
  400880:	48 89 84 24 28 02 00 	mov    %rax,0x228(%rsp)
  400887:	00 
  400888:	48 89 84 24 30 02 00 	mov    %rax,0x230(%rsp)
  40088f:	00 
  400890:	48 89 84 24 38 02 00 	mov    %rax,0x238(%rsp)
  400897:	00 
  400898:	48 89 94 24 40 02 00 	mov    %rdx,0x240(%rsp)
  40089f:	00 
  4008a0:	48 89 84 24 48 02 00 	mov    %rax,0x248(%rsp)
  4008a7:	00 
  4008a8:	48 89 84 24 50 02 00 	mov    %rax,0x250(%rsp)
  4008af:	00 
  4008b0:	48 89 84 24 58 02 00 	mov    %rax,0x258(%rsp)
  4008b7:	00 
  4008b8:	48 89 94 24 60 02 00 	mov    %rdx,0x260(%rsp)
  4008bf:	00 
  4008c0:	48 89 84 24 68 02 00 	mov    %rax,0x268(%rsp)
  4008c7:	00 
  4008c8:	48 89 84 24 70 02 00 	mov    %rax,0x270(%rsp)
  4008cf:	00 
  4008d0:	48 89 84 24 78 02 00 	mov    %rax,0x278(%rsp)
  4008d7:	00 
  4008d8:	c5 f8 29 04 24       	vmovaps %xmm0,(%rsp)
  4008dd:	c5 f8 29 44 24 10    	vmovaps %xmm0,0x10(%rsp)
  4008e3:	c5 f8 29 44 24 20    	vmovaps %xmm0,0x20(%rsp)
  4008e9:	c5 f8 29 44 24 30    	vmovaps %xmm0,0x30(%rsp)
  4008ef:	0f 31                	rdtsc  
  4008f1:	48 c1 e2 20          	shl    $0x20,%rdx
  4008f5:	41 89 c0             	mov    %eax,%r8d
  4008f8:	48 89 e1             	mov    %rsp,%rcx
  4008fb:	49 09 d0             	or     %rdx,%r8
  4008fe:	48 8d b4 24 00 01 00 	lea    0x100(%rsp),%rsi
  400905:	00 
  400906:	48 8d 54 24 40       	lea    0x40(%rsp),%rdx
  40090b:	48 8d bc 24 c0 01 00 	lea    0x1c0(%rsp),%rdi
  400912:	00 
  400913:	e8 48 01 00 00       	callq  400a60 <process_rows_avx2>
  400918:	0f 31                	rdtsc  
  40091a:	89 c6                	mov    %eax,%esi
  40091c:	48 c1 e2 20          	shl    $0x20,%rdx
  400920:	bf d0 0d 40 00       	mov    $0x400dd0,%edi
  400925:	31 c0                	xor    %eax,%eax
  400927:	48 09 f2             	or     %rsi,%rdx
  40092a:	31 db                	xor    %ebx,%ebx
  40092c:	4c 29 c2             	sub    %r8,%rdx
  40092f:	48 89 d6             	mov    %rdx,%rsi
  400932:	e8 69 fb ff ff       	callq  4004a0 <printf@plt>
  400937:	66 0f 1f 84 00 00 00 	nopw   0x0(%rax,%rax,1)
  40093e:	00 00 
  400940:	c5 f9 57 c0          	vxorpd %xmm0,%xmm0,%xmm0
  400944:	89 de                	mov    %ebx,%esi
  400946:	bf 00 0e 40 00       	mov    $0x400e00,%edi
  40094b:	b8 01 00 00 00       	mov    $0x1,%eax
  400950:	c5 fa 5a 04 9c       	vcvtss2sd (%rsp,%rbx,4),%xmm0,%xmm0
  400955:	e8 46 fb ff ff       	callq  4004a0 <printf@plt>
  40095a:	48 83 c3 01          	add    $0x1,%rbx
  40095e:	48 83 fb 10          	cmp    $0x10,%rbx
  400962:	75 dc                	jne    400940 <main+0x490>
  400964:	48 81 c4 80 02 00 00 	add    $0x280,%rsp
  40096b:	31 c0                	xor    %eax,%eax
  40096d:	5b                   	pop    %rbx
  40096e:	c3                   	retq   

000000000040096f <.annobin_elf_init.c.hot>:
  40096f:	90                   	nop

0000000000400970 <_start>:
  400970:	f3 0f 1e fa          	endbr64 
  400974:	31 ed                	xor    %ebp,%ebp
  400976:	49 89 d1             	mov    %rdx,%r9
  400979:	5e                   	pop    %rsi
  40097a:	48 89 e2             	mov    %rsp,%rdx
  40097d:	48 83 e4 f0          	and    $0xfffffffffffffff0,%rsp
  400981:	50                   	push   %rax
  400982:	54                   	push   %rsp
  400983:	49 c7 c0 a0 0d 40 00 	mov    $0x400da0,%r8
  40098a:	48 c7 c1 30 0d 40 00 	mov    $0x400d30,%rcx
  400991:	48 c7 c7 b0 04 40 00 	mov    $0x4004b0,%rdi
  400998:	ff 15 4a 16 20 00    	callq  *0x20164a(%rip)        # 601fe8 <__libc_start_main@GLIBC_2.2.5>
  40099e:	f4                   	hlt    

000000000040099f <.annobin_init.c>:
  40099f:	90                   	nop

00000000004009a0 <_dl_relocate_static_pie>:
  4009a0:	f3 0f 1e fa          	endbr64 
  4009a4:	c3                   	retq   

00000000004009a5 <.annobin__dl_relocate_static_pie.end>:
  4009a5:	66 2e 0f 1f 84 00 00 	nopw   %cs:0x0(%rax,%rax,1)
  4009ac:	00 00 00 
  4009af:	90                   	nop

00000000004009b0 <deregister_tm_clones>:
  4009b0:	48 8d 3d 71 16 20 00 	lea    0x201671(%rip),%rdi        # 602028 <__TMC_END__>
  4009b7:	48 8d 05 6a 16 20 00 	lea    0x20166a(%rip),%rax        # 602028 <__TMC_END__>
  4009be:	48 39 f8             	cmp    %rdi,%rax
  4009c1:	74 15                	je     4009d8 <deregister_tm_clones+0x28>
  4009c3:	48 8b 05 16 16 20 00 	mov    0x201616(%rip),%rax        # 601fe0 <_ITM_deregisterTMCloneTable@Base>
  4009ca:	48 85 c0             	test   %rax,%rax
  4009cd:	74 09                	je     4009d8 <deregister_tm_clones+0x28>
  4009cf:	ff e0                	jmpq   *%rax
  4009d1:	0f 1f 80 00 00 00 00 	nopl   0x0(%rax)
  4009d8:	c3                   	retq   
  4009d9:	0f 1f 80 00 00 00 00 	nopl   0x0(%rax)

00000000004009e0 <register_tm_clones>:
  4009e0:	48 8d 3d 41 16 20 00 	lea    0x201641(%rip),%rdi        # 602028 <__TMC_END__>
  4009e7:	48 8d 35 3a 16 20 00 	lea    0x20163a(%rip),%rsi        # 602028 <__TMC_END__>
  4009ee:	48 29 fe             	sub    %rdi,%rsi
  4009f1:	48 c1 fe 03          	sar    $0x3,%rsi
  4009f5:	48 89 f0             	mov    %rsi,%rax
  4009f8:	48 c1 e8 3f          	shr    $0x3f,%rax
  4009fc:	48 01 c6             	add    %rax,%rsi
  4009ff:	48 d1 fe             	sar    %rsi
  400a02:	74 14                	je     400a18 <register_tm_clones+0x38>
  400a04:	48 8b 05 ed 15 20 00 	mov    0x2015ed(%rip),%rax        # 601ff8 <_ITM_registerTMCloneTable@Base>
  400a0b:	48 85 c0             	test   %rax,%rax
  400a0e:	74 08                	je     400a18 <register_tm_clones+0x38>
  400a10:	ff e0                	jmpq   *%rax
  400a12:	66 0f 1f 44 00 00    	nopw   0x0(%rax,%rax,1)
  400a18:	c3                   	retq   
  400a19:	0f 1f 80 00 00 00 00 	nopl   0x0(%rax)

0000000000400a20 <__do_global_dtors_aux>:
  400a20:	f3 0f 1e fa          	endbr64 
  400a24:	80 3d f9 15 20 00 00 	cmpb   $0x0,0x2015f9(%rip)        # 602024 <_edata>
  400a2b:	75 13                	jne    400a40 <__do_global_dtors_aux+0x20>
  400a2d:	55                   	push   %rbp
  400a2e:	48 89 e5             	mov    %rsp,%rbp
  400a31:	e8 7a ff ff ff       	callq  4009b0 <deregister_tm_clones>
  400a36:	c6 05 e7 15 20 00 01 	movb   $0x1,0x2015e7(%rip)        # 602024 <_edata>
  400a3d:	5d                   	pop    %rbp
  400a3e:	c3                   	retq   
  400a3f:	90                   	nop
  400a40:	c3                   	retq   
  400a41:	66 66 2e 0f 1f 84 00 	data16 nopw %cs:0x0(%rax,%rax,1)
  400a48:	00 00 00 00 
  400a4c:	0f 1f 40 00          	nopl   0x0(%rax)

0000000000400a50 <frame_dummy>:
  400a50:	f3 0f 1e fa          	endbr64 
  400a54:	eb 8a                	jmp    4009e0 <register_tm_clones>
  400a56:	66 2e 0f 1f 84 00 00 	nopw   %cs:0x0(%rax,%rax,1)
  400a5d:	00 00 00 

0000000000400a60 <process_rows_avx2>:
  400a60:	55                   	push   %rbp
  400a61:	48 83 c1 04          	add    $0x4,%rcx
  400a65:	48 89 e5             	mov    %rsp,%rbp
  400a68:	48 83 e4 e0          	and    $0xffffffffffffffe0,%rsp
  400a6c:	48 81 ec c8 00 00 00 	sub    $0xc8,%rsp
  400a73:	48 8d 44 24 d4       	lea    -0x2c(%rsp),%rax
  400a78:	c5 f8 10 0f          	vmovups (%rdi),%xmm1
  400a7c:	c5 f8 10 16          	vmovups (%rsi),%xmm2
  400a80:	c4 63 75 18 47 10 01 	vinsertf128 $0x1,0x10(%rdi),%ymm1,%ymm8
  400a87:	c4 e3 6d 18 46 10 01 	vinsertf128 $0x1,0x10(%rsi),%ymm2,%ymm0
  400a8e:	c5 f8 10 5f 18       	vmovups 0x18(%rdi),%xmm3
  400a93:	c5 f8 10 66 18       	vmovups 0x18(%rsi),%xmm4
  400a98:	c4 e3 65 18 7f 28 01 	vinsertf128 $0x1,0x28(%rdi),%ymm3,%ymm7
  400a9f:	c5 3c 5f c0          	vmaxps %ymm0,%ymm8,%ymm8
  400aa3:	c5 f8 10 6f 30       	vmovups 0x30(%rdi),%xmm5
  400aa8:	c4 e3 5d 18 46 28 01 	vinsertf128 $0x1,0x28(%rsi),%ymm4,%ymm0
  400aaf:	c4 e3 55 18 77 40 01 	vinsertf128 $0x1,0x40(%rdi),%ymm5,%ymm6
  400ab6:	c5 f8 10 4e 30       	vmovups 0x30(%rsi),%xmm1
  400abb:	c5 f8 10 57 48       	vmovups 0x48(%rdi),%xmm2
  400ac0:	c5 c4 5f f8          	vmaxps %ymm0,%ymm7,%ymm7
  400ac4:	c5 f8 10 5e 48       	vmovups 0x48(%rsi),%xmm3
  400ac9:	c5 f8 10 67 60       	vmovups 0x60(%rdi),%xmm4
  400ace:	c4 e3 75 18 46 40 01 	vinsertf128 $0x1,0x40(%rsi),%ymm1,%ymm0
  400ad5:	c4 e3 6d 18 6f 58 01 	vinsertf128 $0x1,0x58(%rdi),%ymm2,%ymm5
  400adc:	c5 f8 10 4e 60       	vmovups 0x60(%rsi),%xmm1
  400ae1:	c4 e3 5d 18 67 70 01 	vinsertf128 $0x1,0x70(%rdi),%ymm4,%ymm4
  400ae8:	c5 cc 5f f0          	vmaxps %ymm0,%ymm6,%ymm6
  400aec:	c4 e3 65 18 46 58 01 	vinsertf128 $0x1,0x58(%rsi),%ymm3,%ymm0
  400af3:	c5 f8 10 57 78       	vmovups 0x78(%rdi),%xmm2
  400af8:	c4 e3 6d 18 9f 88 00 	vinsertf128 $0x1,0x88(%rdi),%ymm2,%ymm3
  400aff:	00 00 01 
  400b02:	c5 f8 10 97 90 00 00 	vmovups 0x90(%rdi),%xmm2
  400b09:	00 
  400b0a:	c4 e3 6d 18 97 a0 00 	vinsertf128 $0x1,0xa0(%rdi),%ymm2,%ymm2
  400b11:	00 00 01 
  400b14:	c5 d4 5f e8          	vmaxps %ymm0,%ymm5,%ymm5
  400b18:	c4 e3 75 18 46 70 01 	vinsertf128 $0x1,0x70(%rsi),%ymm1,%ymm0
  400b1f:	c5 f8 10 4e 78       	vmovups 0x78(%rsi),%xmm1
  400b24:	c5 dc 5f e0          	vmaxps %ymm0,%ymm4,%ymm4
  400b28:	c4 e3 75 18 86 88 00 	vinsertf128 $0x1,0x88(%rsi),%ymm1,%ymm0
  400b2f:	00 00 01 
  400b32:	c5 f8 10 8e 90 00 00 	vmovups 0x90(%rsi),%xmm1
  400b39:	00 
  400b3a:	c5 e4 5f d8          	vmaxps %ymm0,%ymm3,%ymm3
  400b3e:	c4 e3 75 18 86 a0 00 	vinsertf128 $0x1,0xa0(%rsi),%ymm1,%ymm0
  400b45:	00 00 01 
  400b48:	c5 f8 10 8f a8 00 00 	vmovups 0xa8(%rdi),%xmm1
  400b4f:	00 
  400b50:	c4 e3 75 18 8f b8 00 	vinsertf128 $0x1,0xb8(%rdi),%ymm1,%ymm1
  400b57:	00 00 01 
  400b5a:	c5 ec 5f d0          	vmaxps %ymm0,%ymm2,%ymm2
  400b5e:	c5 f8 10 86 a8 00 00 	vmovups 0xa8(%rsi),%xmm0
  400b65:	00 
  400b66:	c4 e3 7d 18 86 b8 00 	vinsertf128 $0x1,0xb8(%rsi),%ymm0,%ymm0
  400b6d:	00 00 01 
  400b70:	c5 f4 5f c8          	vmaxps %ymm0,%ymm1,%ymm1
  400b74:	c5 f8 10 02          	vmovups (%rdx),%xmm0
  400b78:	c4 e3 7d 18 42 10 01 	vinsertf128 $0x1,0x10(%rdx),%ymm0,%ymm0
  400b7f:	c5 3c 5f c0          	vmaxps %ymm0,%ymm8,%ymm8
  400b83:	c5 f8 10 42 18       	vmovups 0x18(%rdx),%xmm0
  400b88:	c4 e3 7d 18 42 28 01 	vinsertf128 $0x1,0x28(%rdx),%ymm0,%ymm0
  400b8f:	c5 c4 5f f8          	vmaxps %ymm0,%ymm7,%ymm7
  400b93:	c5 f8 10 42 30       	vmovups 0x30(%rdx),%xmm0
  400b98:	c4 e3 7d 18 42 40 01 	vinsertf128 $0x1,0x40(%rdx),%ymm0,%ymm0
  400b9f:	c5 cc 5f f0          	vmaxps %ymm0,%ymm6,%ymm6
  400ba3:	c5 f8 10 42 48       	vmovups 0x48(%rdx),%xmm0
  400ba8:	c4 e3 7d 18 42 58 01 	vinsertf128 $0x1,0x58(%rdx),%ymm0,%ymm0
  400baf:	c5 d4 5f e8          	vmaxps %ymm0,%ymm5,%ymm5
  400bb3:	c5 f8 10 42 60       	vmovups 0x60(%rdx),%xmm0
  400bb8:	c4 e3 7d 18 42 70 01 	vinsertf128 $0x1,0x70(%rdx),%ymm0,%ymm0
  400bbf:	c5 dc 5f e0          	vmaxps %ymm0,%ymm4,%ymm4
  400bc3:	c5 f8 10 42 78       	vmovups 0x78(%rdx),%xmm0
  400bc8:	c4 e3 7d 18 82 88 00 	vinsertf128 $0x1,0x88(%rdx),%ymm0,%ymm0
  400bcf:	00 00 01 
  400bd2:	c5 e4 5f d8          	vmaxps %ymm0,%ymm3,%ymm3
  400bd6:	c5 f8 10 82 90 00 00 	vmovups 0x90(%rdx),%xmm0
  400bdd:	00 
  400bde:	c4 e3 7d 18 82 a0 00 	vinsertf128 $0x1,0xa0(%rdx),%ymm0,%ymm0
  400be5:	00 00 01 
  400be8:	c5 ec 5f d0          	vmaxps %ymm0,%ymm2,%ymm2
  400bec:	c5 f8 10 82 a8 00 00 	vmovups 0xa8(%rdx),%xmm0
  400bf3:	00 
  400bf4:	c4 e3 7d 18 82 b8 00 	vinsertf128 $0x1,0xb8(%rdx),%ymm0,%ymm0
  400bfb:	00 00 01 
  400bfe:	48 8d 94 24 d4 00 00 	lea    0xd4(%rsp),%rdx
  400c05:	00 
  400c06:	c5 f4 5f c8          	vmaxps %ymm0,%ymm1,%ymm1
  400c0a:	c5 fd 6f 05 0e 02 00 	vmovdqa 0x20e(%rip),%ymm0        # 400e20 <__dso_handle+0x58>
  400c11:	00 
  400c12:	c4 62 7d 16 ce       	vpermps %ymm6,%ymm0,%ymm9
  400c17:	c4 42 7d 16 d8       	vpermps %ymm8,%ymm0,%ymm11
  400c1c:	c4 62 7d 16 d7       	vpermps %ymm7,%ymm0,%ymm10
  400c21:	c5 7c 29 4c 24 a8    	vmovaps %ymm9,-0x58(%rsp)
  400c27:	c4 62 7d 16 fd       	vpermps %ymm5,%ymm0,%ymm15
  400c2c:	c4 62 7d 16 c9       	vpermps %ymm1,%ymm0,%ymm9
  400c31:	c4 62 7d 16 f4       	vpermps %ymm4,%ymm0,%ymm14
  400c36:	c4 62 7d 16 eb       	vpermps %ymm3,%ymm0,%ymm13
  400c3b:	c4 62 7d 16 e2       	vpermps %ymm2,%ymm0,%ymm12
  400c40:	c4 41 3c 5f c3       	vmaxps %ymm11,%ymm8,%ymm8
  400c45:	c5 7c 29 4c 24 88    	vmovaps %ymm9,-0x78(%rsp)
  400c4b:	c4 c1 44 5f fa       	vmaxps %ymm10,%ymm7,%ymm7
  400c50:	c5 cc 5f 74 24 a8    	vmaxps -0x58(%rsp),%ymm6,%ymm6
  400c56:	c4 42 7d 16 db       	vpermps %ymm11,%ymm0,%ymm11
  400c5b:	c4 c1 54 5f ef       	vmaxps %ymm15,%ymm5,%ymm5
  400c60:	c4 c1 5c 5f e6       	vmaxps %ymm14,%ymm4,%ymm4
  400c65:	c4 42 7d 16 d2       	vpermps %ymm10,%ymm0,%ymm10
  400c6a:	c4 c1 64 5f dd       	vmaxps %ymm13,%ymm3,%ymm3
  400c6f:	c4 c1 6c 5f d4       	vmaxps %ymm12,%ymm2,%ymm2
  400c74:	c4 42 7d 16 ff       	vpermps %ymm15,%ymm0,%ymm15
  400c79:	c4 c1 74 5f c9       	vmaxps %ymm9,%ymm1,%ymm1
  400c7e:	c4 42 7d 16 f6       	vpermps %ymm14,%ymm0,%ymm14
  400c83:	c4 62 7d 16 4c 24 a8 	vpermps -0x58(%rsp),%ymm0,%ymm9
  400c8a:	c4 42 7d 16 ed       	vpermps %ymm13,%ymm0,%ymm13
  400c8f:	c4 42 7d 16 e4       	vpermps %ymm12,%ymm0,%ymm12
  400c94:	c4 e2 7d 16 44 24 88 	vpermps -0x78(%rsp),%ymm0,%ymm0
  400c9b:	c4 41 3c 5f db       	vmaxps %ymm11,%ymm8,%ymm11
  400ca0:	c4 c1 44 5f fa       	vmaxps %ymm10,%ymm7,%ymm7
  400ca5:	c4 c1 4c 5f f1       	vmaxps %ymm9,%ymm6,%ymm6
  400caa:	c4 c1 54 5f ef       	vmaxps %ymm15,%ymm5,%ymm5
  400caf:	c4 c1 5c 5f e6       	vmaxps %ymm14,%ymm4,%ymm4
  400cb4:	c4 c1 64 5f dd       	vmaxps %ymm13,%ymm3,%ymm3
  400cb9:	c4 c1 6c 5f d4       	vmaxps %ymm12,%ymm2,%ymm2
  400cbe:	c5 f4 5f c8          	vmaxps %ymm0,%ymm1,%ymm1
  400cc2:	c5 7c 29 5c 24 c8    	vmovaps %ymm11,-0x38(%rsp)
  400cc8:	c5 fc 29 7c 24 e8    	vmovaps %ymm7,-0x18(%rsp)
  400cce:	c5 fc 29 74 24 08    	vmovaps %ymm6,0x8(%rsp)
  400cd4:	c5 fc 29 6c 24 28    	vmovaps %ymm5,0x28(%rsp)
  400cda:	c5 fc 29 64 24 48    	vmovaps %ymm4,0x48(%rsp)
  400ce0:	c5 fc 29 5c 24 68    	vmovaps %ymm3,0x68(%rsp)
  400ce6:	c5 fc 29 94 24 88 00 	vmovaps %ymm2,0x88(%rsp)
  400ced:	00 00 
  400cef:	c5 fc 29 8c 24 a8 00 	vmovaps %ymm1,0xa8(%rsp)
  400cf6:	00 00 
  400cf8:	0f 1f 84 00 00 00 00 	nopl   0x0(%rax,%rax,1)
  400cff:	00 
  400d00:	c5 fa 10 40 f4       	vmovss -0xc(%rax),%xmm0
  400d05:	48 83 c0 20          	add    $0x20,%rax
  400d09:	48 83 c1 08          	add    $0x8,%rcx
  400d0d:	c5 fa 11 41 f4       	vmovss %xmm0,-0xc(%rcx)
  400d12:	c5 fa 10 40 e0       	vmovss -0x20(%rax),%xmm0
  400d17:	c5 fa 11 41 f8       	vmovss %xmm0,-0x8(%rcx)
  400d1c:	48 39 d0             	cmp    %rdx,%rax
  400d1f:	75 df                	jne    400d00 <process_rows_avx2+0x2a0>
  400d21:	c5 f8 77             	vzeroupper 
  400d24:	c9                   	leaveq 
  400d25:	c3                   	retq   
  400d26:	66 2e 0f 1f 84 00 00 	nopw   %cs:0x0(%rax,%rax,1)
  400d2d:	00 00 00 

0000000000400d30 <__libc_csu_init>:
  400d30:	f3 0f 1e fa          	endbr64 
  400d34:	41 57                	push   %r15
  400d36:	49 89 d7             	mov    %rdx,%r15
  400d39:	41 56                	push   %r14
  400d3b:	49 89 f6             	mov    %rsi,%r14
  400d3e:	41 55                	push   %r13
  400d40:	41 89 fd             	mov    %edi,%r13d
  400d43:	41 54                	push   %r12
  400d45:	4c 8d 25 b4 10 20 00 	lea    0x2010b4(%rip),%r12        # 601e00 <__frame_dummy_init_array_entry>
  400d4c:	55                   	push   %rbp
  400d4d:	48 8d 2d b4 10 20 00 	lea    0x2010b4(%rip),%rbp        # 601e08 <__init_array_end>
  400d54:	53                   	push   %rbx
  400d55:	4c 29 e5             	sub    %r12,%rbp
  400d58:	48 83 ec 08          	sub    $0x8,%rsp
  400d5c:	e8 07 f7 ff ff       	callq  400468 <_init>
  400d61:	48 c1 fd 03          	sar    $0x3,%rbp
  400d65:	74 1f                	je     400d86 <__libc_csu_init+0x56>
  400d67:	31 db                	xor    %ebx,%ebx
  400d69:	0f 1f 80 00 00 00 00 	nopl   0x0(%rax)
  400d70:	4c 89 fa             	mov    %r15,%rdx
  400d73:	4c 89 f6             	mov    %r14,%rsi
  400d76:	44 89 ef             	mov    %r13d,%edi
  400d79:	41 ff 14 dc          	callq  *(%r12,%rbx,8)
  400d7d:	48 83 c3 01          	add    $0x1,%rbx
  400d81:	48 39 dd             	cmp    %rbx,%rbp
  400d84:	75 ea                	jne    400d70 <__libc_csu_init+0x40>
  400d86:	48 83 c4 08          	add    $0x8,%rsp
  400d8a:	5b                   	pop    %rbx
  400d8b:	5d                   	pop    %rbp
  400d8c:	41 5c                	pop    %r12
  400d8e:	41 5d                	pop    %r13
  400d90:	41 5e                	pop    %r14
  400d92:	41 5f                	pop    %r15
  400d94:	c3                   	retq   

0000000000400d95 <.annobin___libc_csu_fini.start>:
  400d95:	66 66 2e 0f 1f 84 00 	data16 nopw %cs:0x0(%rax,%rax,1)
  400d9c:	00 00 00 00 

0000000000400da0 <__libc_csu_fini>:
  400da0:	f3 0f 1e fa          	endbr64 
  400da4:	c3                   	retq   

Disassembly of section .fini:

0000000000400da8 <_fini>:
  400da8:	f3 0f 1e fa          	endbr64 
  400dac:	48 83 ec 08          	sub    $0x8,%rsp
  400db0:	48 83 c4 08          	add    $0x8,%rsp
  400db4:	c3                   	retq   
